; Function Attrs: mustprogress uwtable
define noundef ptr @_ZN6icu_7513CollationRoot7getDataER10UErrorCode(ptr noundef nonnull align 4 dereferenceable(4) %errorCode) local_unnamed_addr #0 align 2 {
entry:
  %0 = load i32, ptr %errorCode, align 4
  %cmp.i.i.i = icmp slt i32 %0, 1
  br i1 %cmp.i.i.i, label %if.end.i.i, label %return

if.end.i.i:                                       ; preds = %entry
  %1 = load atomic i32, ptr @_ZN6icu_7512_GLOBAL__N_18initOnceE acquire, align 4
  %cmp.not.i.i = icmp eq i32 %1, 2
  br i1 %cmp.not.i.i, label %if.else.i.i, label %land.lhs.true.i.i

land.lhs.true.i.i:                                ; preds = %if.end.i.i
  %call2.i.i = tail call noundef signext i8 @_ZN6icu_7520umtx_initImplPreInitERNS_9UInitOnceE(ptr noundef nonnull align 4 dereferenceable(8) @_ZN6icu_7512_GLOBAL__N_18initOnceE)
  %tobool3.not.i.i = icmp eq i8 %call2.i.i, 0
  br i1 %tobool3.not.i.i, label %if.else.i.i, label %if.then4.i.i

if.then4.i.i:                                     ; preds = %land.lhs.true.i.i
  tail call void @_ZN6icu_7513CollationRoot4loadEPKcR10UErrorCode(ptr noundef null, ptr noundef nonnull align 4 dereferenceable(4) %errorCode)
  %2 = load i32, ptr %errorCode, align 4
  store i32 %2, ptr getelementptr inbounds ({ { i32 }, i32 }, ptr @_ZN6icu_7512_GLOBAL__N_18initOnceE, i64 0, i32 1), align 4
  tail call void @_ZN6icu_7521umtx_initImplPostInitERNS_9UInitOnceE(ptr noundef nonnull align 4 dereferenceable(8) @_ZN6icu_7512_GLOBAL__N_18initOnceE)
  br label %_ZN6icu_7513umtx_initOnceIPKcEEvRNS_9UInitOnceEPFvT_R10UErrorCodeES5_S7_.exit.i

if.else.i.i:                                      ; preds = %land.lhs.true.i.i, %if.end.i.i
  %3 = load i32, ptr getelementptr inbounds ({ { i32 }, i32 }, ptr @_ZN6icu_7512_GLOBAL__N_18initOnceE, i64 0, i32 1), align 4
  %cmp.i9.i.i = icmp slt i32 %3, 1
  br i1 %cmp.i9.i.i, label %_ZN6icu_7513umtx_initOnceIPKcEEvRNS_9UInitOnceEPFvT_R10UErrorCodeES5_S7_.exit.i, label %if.then8.i.i

if.then8.i.i:                                     ; preds = %if.else.i.i
  store i32 %3, ptr %errorCode, align 4
  br label %return

_ZN6icu_7513umtx_initOnceIPKcEEvRNS_9UInitOnceEPFvT_R10UErrorCodeES5_S7_.exit.i: ; preds = %if.else.i.i, %if.then4.i.i
  %.pr.i = load i32, ptr %errorCode, align 4
  %cmp.i.i = icmp slt i32 %.pr.i, 1
  br i1 %cmp.i.i, label %if.end, label %return

if.end:                                           ; preds = %_ZN6icu_7513umtx_initOnceIPKcEEvRNS_9UInitOnceEPFvT_R10UErrorCodeES5_S7_.exit.i
  %4 = load ptr, ptr @_ZN6icu_7512_GLOBAL__N_113rootSingletonE, align 8
  %tailoring.i = getelementptr inbounds i8, ptr %4, i64 248
  %5 = load ptr, ptr %tailoring.i, align 8
  %data = getelementptr inbounds i8, ptr %5, i64 24
  %6 = load ptr, ptr %data, align 8
  br label %return

return:                                           ; preds = %if.then8.i.i, %entry, %_ZN6icu_7513umtx_initOnceIPKcEEvRNS_9UInitOnceEPFvT_R10UErrorCodeES5_S7_.exit.i, %if.end
  %retval.0 = phi ptr [ %6, %if.end ], [ null, %_ZN6icu_7513umtx_initOnceIPKcEEvRNS_9UInitOnceEPFvT_R10UErrorCodeES5_S7_.exit.i ], [ null, %entry ], [ null, %if.then8.i.i ]
  ret ptr %retval.0
}